; Function Attrs: mustprogress uwtable
define void @_ZN7rocksdb14MockFileSystem18CreateDirIfMissingERKNSt7__cxx1112basic_stringIcSt11char_traitsIcESaIcEEERKNS_9IOOptionsEPNS_14IODebugContextE(ptr dead_on_unwind noalias writable writeonly sret(%"class.rocksdb::IOStatus") align 8 captures(none) initializes((0, 6), (8, 16)) %0, ptr noundef nonnull align 8 dereferenceable(145) %1, ptr noundef nonnull align 8 dereferenceable(32) %2, ptr noundef nonnull align 8 dereferenceable(84) %3, ptr noundef %4) unnamed_addr #1 align 2 personality ptr @__gxx_personality_v0 {
  %6 = alloca %"class.rocksdb::IOStatus", align 8
  call void @llvm.lifetime.start.p0(i64 16, ptr nonnull %6) #32
  %7 = load ptr, ptr %1, align 8, !tbaa !46
  %8 = getelementptr inbounds nuw i8, ptr %7, i64 272
  %9 = load ptr, ptr %8, align 8
  call void %9(ptr dead_on_unwind nonnull writable sret(%"class.rocksdb::IOStatus") align 8 %6, ptr noundef nonnull align 8 dereferenceable(145) %1, ptr noundef nonnull align 8 dereferenceable(32) %2, ptr noundef nonnull align 8 dereferenceable(84) %3, ptr noundef %4)
  %10 = getelementptr inbounds nuw i8, ptr %6, i64 8
  %11 = load ptr, ptr %10, align 8, !tbaa !54
  %.not.i.i = icmp eq ptr %11, null
  br i1 %.not.i.i, label %_ZN7rocksdb6StatusD2Ev.exit, label %_ZNKSt14default_deleteIA_KcEclIS0_EENSt9enable_ifIXsr14is_convertibleIPA_T_PS1_EE5valueEvE4typeEPS5_.exit.i.i

_ZNKSt14default_deleteIA_KcEclIS0_EENSt9enable_ifIXsr14is_convertibleIPA_T_PS1_EE5valueEvE4typeEPS5_.exit.i.i: ; preds = %5
  call void @_ZdaPv(ptr noundef nonnull %11) #33
  br label %_ZN7rocksdb6StatusD2Ev.exit

_ZN7rocksdb6StatusD2Ev.exit:                      ; preds = %5, %_ZNKSt14default_deleteIA_KcEclIS0_EENSt9enable_ifIXsr14is_convertibleIPA_T_PS1_EE5valueEvE4typeEPS5_.exit.i.i
  call void @llvm.lifetime.end.p0(i64 16, ptr nonnull %6) #32
  store i8 0, ptr %0, align 8, !tbaa !114, !alias.scope !321
  %12 = getelementptr inbounds nuw i8, ptr %0, i64 1
  store i8 0, ptr %12, align 1, !tbaa !139, !alias.scope !321
  %13 = getelementptr inbounds nuw i8, ptr %0, i64 2
  %14 = getelementptr inbounds nuw i8, ptr %0, i64 8
  store ptr null, ptr %14, align 8, !tbaa !143, !alias.scope !321
  store i32 0, ptr %13, align 2, !alias.scope !321
  ret void
}